target datalayout = "e-m:e-p270:32:32-p271:32:32-p272:64:64-i64:64-i128:128-f80:128-n8:16:32:64-S128"
target triple = "x86_64-pc-linux-gnu"

%struct.H5T_cdata_t = type { i32, i32, i8, ptr }
%struct.H5T_t = type { %struct.H5O_shared_t, ptr, %struct.H5O_loc_t, %struct.H5G_name_t, ptr }
%struct.H5O_shared_t = type { i32, ptr, i32, %union.anon }
%union.anon = type { %struct.H5O_mesg_loc_t }
%struct.H5O_mesg_loc_t = type { i32, i64 }
%struct.H5O_loc_t = type { ptr, i64, i8 }
%struct.H5G_name_t = type { ptr, ptr, i32 }
%struct.H5T_shared_t = type { i64, i32, i32, i64, i32, i8, ptr, ptr, %union.anon.0 }
%union.anon.0 = type { %struct.H5T_array_t }
%struct.H5T_array_t = type { i64, i32, [32 x i64] }

@.str = private unnamed_addr constant [106 x i8] c"generated/home/dtcxzyw/WorkSpace/Projects/compilers/llvm-opt-benchmark/bench/hdf5/hdf5/src/H5Tconv_enum.c\00", align 1
@H5E_DATATYPE_g = external global i64, align 8
@H5E_BADTYPE_g = external global i64, align 8
@.str.1 = private unnamed_addr constant [15 x i8] c"not a datatype\00", align 1
@H5E_CANTINIT_g = external global i64, align 8
@H5E_ARGS_g = external global i64, align 8
@H5E_UNSUPPORTED_g = external global i64, align 8
@.str.7 = private unnamed_addr constant [27 x i8] c"unknown conversion command\00", align 1
@__func__.H5T__conv_enum_numeric = private unnamed_addr constant [23 x i8] c"H5T__conv_enum_numeric\00", align 1
@.str.8 = private unnamed_addr constant [39 x i8] c"source type is not a H5T_ENUM datatype\00", align 1
@.str.9 = private unnamed_addr constant [35 x i8] c"destination is not an integer type\00", align 1
@.str.10 = private unnamed_addr constant [48 x i8] c"unable to convert between src and dest datatype\00", align 1
@.str.11 = private unnamed_addr constant [27 x i8] c"datatype conversion failed\00", align 1

; Function Attrs: nounwind uwtable
define i32 @H5T__conv_enum_numeric(ptr noundef %0, ptr noundef %1, ptr noundef %2, ptr noundef %3, i64 noundef %4, i64 noundef %5, i64 noundef %6, ptr noundef %7, ptr noundef %8) #0 {
  %10 = alloca ptr, align 8
  %11 = alloca ptr, align 8
  %12 = alloca ptr, align 8
  %13 = alloca ptr, align 8
  %14 = alloca i64, align 8
  %15 = alloca i64, align 8
  %16 = alloca i64, align 8
  %17 = alloca ptr, align 8
  %18 = alloca ptr, align 8
  %19 = alloca ptr, align 8
  %20 = alloca ptr, align 8
  %21 = alloca i32, align 4
  %22 = alloca i8, align 1
  store ptr %0, ptr %10, align 8
  store ptr %1, ptr %11, align 8
  store ptr %2, ptr %12, align 8
  store ptr %3, ptr %13, align 8
  store i64 %4, ptr %14, align 8
  store i64 %5, ptr %15, align 8
  store i64 %6, ptr %16, align 8
  store ptr %7, ptr %17, align 8
  store ptr %8, ptr %18, align 8
  store i32 0, ptr %21, align 4
  store i8 0, ptr %22, align 1
  %23 = load ptr, ptr %12, align 8
  %24 = getelementptr inbounds %struct.H5T_cdata_t, ptr %23, i32 0, i32 0
  %25 = load i32, ptr %24, align 8
  switch i32 %25, label %180 [
    i32 0, label %26
    i32 2, label %101
    i32 1, label %102
  ]

26:                                               ; preds = %9
  %27 = load ptr, ptr %10, align 8
  %28 = icmp eq ptr null, %27
  br i1 %28, label %32, label %29

29:                                               ; preds = %26
  %30 = load ptr, ptr %11, align 8
  %31 = icmp eq ptr null, %30
  br i1 %31, label %32, label %47

32:                                               ; preds = %29, %26
  br label %33

33:                                               ; preds = %32
  br label %34

34:                                               ; preds = %33
  br label %35

35:                                               ; preds = %34
  %36 = load i64, ptr @H5E_DATATYPE_g, align 8
  %37 = load i64, ptr @H5E_BADTYPE_g, align 8
  %38 = call i32 (ptr, ptr, i32, i64, i64, ptr, ...) @H5E_printf_stack(ptr noundef @.str, ptr noundef @__func__.H5T__conv_enum_numeric, i32 noundef 508, i64 noundef %36, i64 noundef %37, ptr noundef @.str.1)
  br label %39

39:                                               ; preds = %35
  store i8 1, ptr %22, align 1
  %40 = load i8, ptr %22, align 1
  %41 = trunc i8 %40 to i1
  %42 = zext i1 %41 to i8
  store i8 %42, ptr %22, align 1
  br label %43

43:                                               ; preds = %39
  br label %44

44:                                               ; preds = %43
  store i32 -1, ptr %21, align 4
  br label %196

45:                                               ; No predecessors!
  br label %46

46:                                               ; preds = %45
  br label %47

47:                                               ; preds = %46, %29
  %48 = load ptr, ptr %10, align 8
  %49 = getelementptr inbounds %struct.H5T_t, ptr %48, i32 0, i32 1
  %50 = load ptr, ptr %49, align 8
  %51 = getelementptr inbounds %struct.H5T_shared_t, ptr %50, i32 0, i32 2
  %52 = load i32, ptr %51, align 4
  %53 = icmp ne i32 8, %52
  br i1 %53, label %54, label %69

54:                                               ; preds = %47
  br label %55

55:                                               ; preds = %54
  br label %56

56:                                               ; preds = %55
  br label %57

57:                                               ; preds = %56
  %58 = load i64, ptr @H5E_DATATYPE_g, align 8
  %59 = load i64, ptr @H5E_BADTYPE_g, align 8
  %60 = call i32 (ptr, ptr, i32, i64, i64, ptr, ...) @H5E_printf_stack(ptr noundef @.str, ptr noundef @__func__.H5T__conv_enum_numeric, i32 noundef 510, i64 noundef %58, i64 noundef %59, ptr noundef @.str.8)
  br label %61

61:                                               ; preds = %57
  store i8 1, ptr %22, align 1
  %62 = load i8, ptr %22, align 1
  %63 = trunc i8 %62 to i1
  %64 = zext i1 %63 to i8
  store i8 %64, ptr %22, align 1
  br label %65

65:                                               ; preds = %61
  br label %66

66:                                               ; preds = %65
  store i32 -1, ptr %21, align 4
  br label %196

67:                                               ; No predecessors!
  br label %68

68:                                               ; preds = %67
  br label %69

69:                                               ; preds = %68, %47
  %70 = load ptr, ptr %11, align 8
  %71 = getelementptr inbounds %struct.H5T_t, ptr %70, i32 0, i32 1
  %72 = load ptr, ptr %71, align 8
  %73 = getelementptr inbounds %struct.H5T_shared_t, ptr %72, i32 0, i32 2
  %74 = load i32, ptr %73, align 4
  %75 = icmp ne i32 0, %74
  br i1 %75, label %76, label %98

76:                                               ; preds = %69
  %77 = load ptr, ptr %11, align 8
  %78 = getelementptr inbounds %struct.H5T_t, ptr %77, i32 0, i32 1
  %79 = load ptr, ptr %78, align 8
  %80 = getelementptr inbounds %struct.H5T_shared_t, ptr %79, i32 0, i32 2
  %81 = load i32, ptr %80, align 4
  %82 = icmp ne i32 1, %81
  br i1 %82, label %83, label %98

83:                                               ; preds = %76
  br label %84

84:                                               ; preds = %83
  br label %85

85:                                               ; preds = %84
  br label %86

86:                                               ; preds = %85
  %87 = load i64, ptr @H5E_DATATYPE_g, align 8
  %88 = load i64, ptr @H5E_BADTYPE_g, align 8
  %89 = call i32 (ptr, ptr, i32, i64, i64, ptr, ...) @H5E_printf_stack(ptr noundef @.str, ptr noundef @__func__.H5T__conv_enum_numeric, i32 noundef 512, i64 noundef %87, i64 noundef %88, ptr noundef @.str.9)
  br label %90

90:                                               ; preds = %86
  store i8 1, ptr %22, align 1
  %91 = load i8, ptr %22, align 1
  %92 = trunc i8 %91 to i1
  %93 = zext i1 %92 to i8
  store i8 %93, ptr %22, align 1
  br label %94

94:                                               ; preds = %90
  br label %95

95:                                               ; preds = %94
  store i32 -1, ptr %21, align 4
  br label %196

96:                                               ; No predecessors!
  br label %97

97:                                               ; preds = %96
  br label %98

98:                                               ; preds = %97, %76, %69
  %99 = load ptr, ptr %12, align 8
  %100 = getelementptr inbounds %struct.H5T_cdata_t, ptr %99, i32 0, i32 1
  store i32 0, ptr %100, align 4
  br label %195

101:                                              ; preds = %9
  br label %195

102:                                              ; preds = %9
  %103 = load ptr, ptr %10, align 8
  %104 = icmp eq ptr null, %103
  br i1 %104, label %108, label %105

105:                                              ; preds = %102
  %106 = load ptr, ptr %11, align 8
  %107 = icmp eq ptr null, %106
  br i1 %107, label %108, label %123

108:                                              ; preds = %105, %102
  br label %109

109:                                              ; preds = %108
  br label %110

110:                                              ; preds = %109
  br label %111

111:                                              ; preds = %110
  %112 = load i64, ptr @H5E_ARGS_g, align 8
  %113 = load i64, ptr @H5E_BADTYPE_g, align 8
  %114 = call i32 (ptr, ptr, i32, i64, i64, ptr, ...) @H5E_printf_stack(ptr noundef @.str, ptr noundef @__func__.H5T__conv_enum_numeric, i32 noundef 522, i64 noundef %112, i64 noundef %113, ptr noundef @.str.1)
  br label %115

115:                                              ; preds = %111
  store i8 1, ptr %22, align 1
  %116 = load i8, ptr %22, align 1
  %117 = trunc i8 %116 to i1
  %118 = zext i1 %117 to i8
  store i8 %118, ptr %22, align 1
  br label %119

119:                                              ; preds = %115
  br label %120

120:                                              ; preds = %119
  store i32 -1, ptr %21, align 4
  br label %196

121:                                              ; No predecessors!
  br label %122

122:                                              ; preds = %121
  br label %123

123:                                              ; preds = %122, %105
  %124 = load ptr, ptr %10, align 8
  %125 = getelementptr inbounds %struct.H5T_t, ptr %124, i32 0, i32 1
  %126 = load ptr, ptr %125, align 8
  %127 = getelementptr inbounds %struct.H5T_shared_t, ptr %126, i32 0, i32 6
  %128 = load ptr, ptr %127, align 8
  store ptr %128, ptr %19, align 8
  %129 = load ptr, ptr %19, align 8
  %130 = load ptr, ptr %11, align 8
  %131 = call ptr @H5T_path_find(ptr noundef %129, ptr noundef %130)
  store ptr %131, ptr %20, align 8
  %132 = icmp eq ptr null, %131
  br i1 %132, label %133, label %148

133:                                              ; preds = %123
  br label %134

134:                                              ; preds = %133
  br label %135

135:                                              ; preds = %134
  br label %136

136:                                              ; preds = %135
  %137 = load i64, ptr @H5E_DATATYPE_g, align 8
  %138 = load i64, ptr @H5E_UNSUPPORTED_g, align 8
  %139 = call i32 (ptr, ptr, i32, i64, i64, ptr, ...) @H5E_printf_stack(ptr noundef @.str, ptr noundef @__func__.H5T__conv_enum_numeric, i32 noundef 528, i64 noundef %137, i64 noundef %138, ptr noundef @.str.10)
  br label %140

140:                                              ; preds = %136
  store i8 1, ptr %22, align 1
  %141 = load i8, ptr %22, align 1
  %142 = trunc i8 %141 to i1
  %143 = zext i1 %142 to i8
  store i8 %143, ptr %22, align 1
  br label %144

144:                                              ; preds = %140
  br label %145

145:                                              ; preds = %144
  store i32 -1, ptr %21, align 4
  br label %196

146:                                              ; No predecessors!
  br label %147

147:                                              ; preds = %146
  br label %179

148:                                              ; preds = %123
  %149 = load ptr, ptr %20, align 8
  %150 = call zeroext i1 @H5T_path_noop(ptr noundef %149)
  br i1 %150, label %178, label %151

151:                                              ; preds = %148
  %152 = load ptr, ptr %20, align 8
  %153 = load ptr, ptr %19, align 8
  %154 = load ptr, ptr %11, align 8
  %155 = load i64, ptr %14, align 8
  %156 = load i64, ptr %15, align 8
  %157 = load i64, ptr %16, align 8
  %158 = load ptr, ptr %17, align 8
  %159 = load ptr, ptr %18, align 8
  %160 = call i32 @H5T_convert(ptr noundef %152, ptr noundef %153, ptr noundef %154, i64 noundef %155, i64 noundef %156, i64 noundef %157, ptr noundef %158, ptr noundef %159)
  %161 = icmp slt i32 %160, 0
  br i1 %161, label %162, label %177

162:                                              ; preds = %151
  br label %163

163:                                              ; preds = %162
  br label %164

164:                                              ; preds = %163
  br label %165

165:                                              ; preds = %164
  %166 = load i64, ptr @H5E_DATATYPE_g, align 8
  %167 = load i64, ptr @H5E_CANTINIT_g, align 8
  %168 = call i32 (ptr, ptr, i32, i64, i64, ptr, ...) @H5E_printf_stack(ptr noundef @.str, ptr noundef @__func__.H5T__conv_enum_numeric, i32 noundef 533, i64 noundef %166, i64 noundef %167, ptr noundef @.str.11)
  br label %169

169:                                              ; preds = %165
  store i8 1, ptr %22, align 1
  %170 = load i8, ptr %22, align 1
  %171 = trunc i8 %170 to i1
  %172 = zext i1 %171 to i8
  store i8 %172, ptr %22, align 1
  br label %173

173:                                              ; preds = %169
  br label %174

174:                                              ; preds = %173
  store i32 -1, ptr %21, align 4
  br label %196

175:                                              ; No predecessors!
  br label %176

176:                                              ; preds = %175
  br label %177

177:                                              ; preds = %176, %151
  br label %178

178:                                              ; preds = %177, %148
  br label %179

179:                                              ; preds = %178, %147
  br label %195

180:                                              ; preds = %9
  br label %181

181:                                              ; preds = %180
  br label %182

182:                                              ; preds = %181
  br label %183

183:                                              ; preds = %182
  %184 = load i64, ptr @H5E_DATATYPE_g, align 8
  %185 = load i64, ptr @H5E_UNSUPPORTED_g, align 8
  %186 = call i32 (ptr, ptr, i32, i64, i64, ptr, ...) @H5E_printf_stack(ptr noundef @.str, ptr noundef @__func__.H5T__conv_enum_numeric, i32 noundef 539, i64 noundef %184, i64 noundef %185, ptr noundef @.str.7)
  br label %187

187:                                              ; preds = %183
  store i8 1, ptr %22, align 1
  %188 = load i8, ptr %22, align 1
  %189 = trunc i8 %188 to i1
  %190 = zext i1 %189 to i8
  store i8 %190, ptr %22, align 1
  br label %191

191:                                              ; preds = %187
  br label %192

192:                                              ; preds = %191
  store i32 -1, ptr %21, align 4
  br label %196

193:                                              ; No predecessors!
  br label %194

194:                                              ; preds = %193
  br label %195

195:                                              ; preds = %194, %179, %101, %98
  br label %196

196:                                              ; preds = %195, %192, %174, %145, %120, %95, %66, %44
  %197 = load i32, ptr %21, align 4
  ret i32 %197
}