; Function Attrs: nounwind uwtable
define range(i32 -1, 1) i32 @H5T__conv_enum_numeric(ptr noundef readonly %0, ptr noundef %1, ptr nocapture noundef %2, ptr nocapture noundef readnone %3, i64 noundef %4, i64 noundef %5, i64 noundef %6, ptr noundef %7, ptr noundef %8) local_unnamed_addr #0 {
  %10 = load i32, ptr %2, align 8
  switch i32 %10, label %65 [
    i32 0, label %11
    i32 2, label %69
    i32 1, label %38
  ]

11:                                               ; preds = %9
  %12 = icmp eq ptr %0, null
  %13 = icmp eq ptr %1, null
  %or.cond = or i1 %12, %13
  br i1 %or.cond, label %14, label %18

14:                                               ; preds = %11
  %15 = load i64, ptr @H5E_DATATYPE_g, align 8
  %16 = load i64, ptr @H5E_BADTYPE_g, align 8
  %17 = tail call i32 (ptr, ptr, i32, i64, i64, ptr, ...) @H5E_printf_stack(ptr noundef nonnull @.str, ptr noundef nonnull @__func__.H5T__conv_enum_numeric, i32 noundef 508, i64 noundef %15, i64 noundef %16, ptr noundef nonnull @.str.1) #10
  br label %69

18:                                               ; preds = %11
  %19 = getelementptr inbounds i8, ptr %0, i64 40
  %20 = load ptr, ptr %19, align 8
  %21 = getelementptr inbounds i8, ptr %20, i64 12
  %22 = load i32, ptr %21, align 4
  %.not = icmp eq i32 %22, 8
  br i1 %.not, label %27, label %23

23:                                               ; preds = %18
  %24 = load i64, ptr @H5E_DATATYPE_g, align 8
  %25 = load i64, ptr @H5E_BADTYPE_g, align 8
  %26 = tail call i32 (ptr, ptr, i32, i64, i64, ptr, ...) @H5E_printf_stack(ptr noundef nonnull @.str, ptr noundef nonnull @__func__.H5T__conv_enum_numeric, i32 noundef 510, i64 noundef %24, i64 noundef %25, ptr noundef nonnull @.str.8) #10
  br label %69

27:                                               ; preds = %18
  %28 = getelementptr inbounds i8, ptr %1, i64 40
  %29 = load ptr, ptr %28, align 8
  %30 = getelementptr inbounds i8, ptr %29, i64 12
  %31 = load i32, ptr %30, align 4
  %switch = icmp ult i32 %31, 2
  br i1 %switch, label %36, label %32

32:                                               ; preds = %27
  %33 = load i64, ptr @H5E_DATATYPE_g, align 8
  %34 = load i64, ptr @H5E_BADTYPE_g, align 8
  %35 = tail call i32 (ptr, ptr, i32, i64, i64, ptr, ...) @H5E_printf_stack(ptr noundef nonnull @.str, ptr noundef nonnull @__func__.H5T__conv_enum_numeric, i32 noundef 512, i64 noundef %33, i64 noundef %34, ptr noundef nonnull @.str.9) #10
  br label %69

36:                                               ; preds = %27
  %37 = getelementptr inbounds i8, ptr %2, i64 4
  store i32 0, ptr %37, align 4
  br label %69

38:                                               ; preds = %9
  %39 = icmp eq ptr %0, null
  %40 = icmp eq ptr %1, null
  %or.cond3 = or i1 %39, %40
  br i1 %or.cond3, label %41, label %45

41:                                               ; preds = %38
  %42 = load i64, ptr @H5E_ARGS_g, align 8
  %43 = load i64, ptr @H5E_BADTYPE_g, align 8
  %44 = tail call i32 (ptr, ptr, i32, i64, i64, ptr, ...) @H5E_printf_stack(ptr noundef nonnull @.str, ptr noundef nonnull @__func__.H5T__conv_enum_numeric, i32 noundef 522, i64 noundef %42, i64 noundef %43, ptr noundef nonnull @.str.1) #10
  br label %69

45:                                               ; preds = %38
  %46 = getelementptr inbounds i8, ptr %0, i64 40
  %47 = load ptr, ptr %46, align 8
  %48 = getelementptr inbounds i8, ptr %47, i64 32
  %49 = load ptr, ptr %48, align 8
  %50 = tail call ptr @H5T_path_find(ptr noundef %49, ptr noundef nonnull %1) #10
  %51 = icmp eq ptr %50, null
  br i1 %51, label %52, label %56

52:                                               ; preds = %45
  %53 = load i64, ptr @H5E_DATATYPE_g, align 8
  %54 = load i64, ptr @H5E_UNSUPPORTED_g, align 8
  %55 = tail call i32 (ptr, ptr, i32, i64, i64, ptr, ...) @H5E_printf_stack(ptr noundef nonnull @.str, ptr noundef nonnull @__func__.H5T__conv_enum_numeric, i32 noundef 528, i64 noundef %53, i64 noundef %54, ptr noundef nonnull @.str.10) #10
  br label %69

56:                                               ; preds = %45
  %57 = tail call zeroext i1 @H5T_path_noop(ptr noundef nonnull %50) #10
  br i1 %57, label %69, label %58

58:                                               ; preds = %56
  %59 = tail call i32 @H5T_convert(ptr noundef nonnull %50, ptr noundef %49, ptr noundef nonnull %1, i64 noundef %4, i64 noundef %5, i64 noundef %6, ptr noundef %7, ptr noundef %8) #10
  %60 = icmp slt i32 %59, 0
  br i1 %60, label %61, label %69

61:                                               ; preds = %58
  %62 = load i64, ptr @H5E_DATATYPE_g, align 8
  %63 = load i64, ptr @H5E_CANTINIT_g, align 8
  %64 = tail call i32 (ptr, ptr, i32, i64, i64, ptr, ...) @H5E_printf_stack(ptr noundef nonnull @.str, ptr noundef nonnull @__func__.H5T__conv_enum_numeric, i32 noundef 533, i64 noundef %62, i64 noundef %63, ptr noundef nonnull @.str.11) #10
  br label %69

65:                                               ; preds = %9
  %66 = load i64, ptr @H5E_DATATYPE_g, align 8
  %67 = load i64, ptr @H5E_UNSUPPORTED_g, align 8
  %68 = tail call i32 (ptr, ptr, i32, i64, i64, ptr, ...) @H5E_printf_stack(ptr noundef nonnull @.str, ptr noundef nonnull @__func__.H5T__conv_enum_numeric, i32 noundef 539, i64 noundef %66, i64 noundef %67, ptr noundef nonnull @.str.7) #10
  br label %69

69:                                               ; preds = %36, %9, %56, %58, %65, %61, %52, %41, %32, %23, %14
  %.0 = phi i32 [ -1, %65 ], [ -1, %41 ], [ -1, %52 ], [ 0, %56 ], [ -1, %61 ], [ 0, %58 ], [ 0, %9 ], [ -1, %14 ], [ -1, %23 ], [ -1, %32 ], [ 0, %36 ]
  ret i32 %.0
}